(dp1
S'fly'
p2
Vpavan
p3
sS'fullscreen'
p4
I00
sS'loom'
p5
I01
sS'stats'
p6
I00
sS'closed'
p7
I00
sS'stimDur'
p8
I50
sS'stopVal'
p9
I10
sS'barWidth'
p10
I5
sS'sweep'
p11
I00
sS'width'
p12
I2719
sS'printFps'
p13
I00
sS'gain'
p14
I1
sS'dateStr'
p15
V2016_Jan_23_1523
p16
sS'startVal'
p17
I1
sS'sweepParam'
p18
Vspeed
p19
sS'speedL'
p20
I5
sS'height'
p21
I768
sS'stepSize'
p22
I1
sS'contrast'
p23
I1
sS'speedR'
p24
I5
s.